; Function Attrs: nounwind uwtable
define i32 @Abc_NtkClpOneGia_rec(ptr noundef %0, ptr noundef captures(none) %1) local_unnamed_addr #0 {
  %.val2.i = load ptr, ptr %1, align 8
  %3 = getelementptr i8, ptr %1, i64 16
  %.val3.i = load i32, ptr %3, align 8
  %4 = getelementptr inbounds nuw i8, ptr %.val2.i, i64 224
  %5 = add nsw i32 %.val3.i, 1
  tail call fastcc void @Vec_IntFillExtra(ptr noundef nonnull %4, i32 noundef %5)
  %6 = getelementptr i8, ptr %.val2.i, i64 232
  %.val.i.i.i = load ptr, ptr %6, align 8
  %7 = sext i32 %.val3.i to i64
  %8 = getelementptr inbounds i32, ptr %.val.i.i.i, i64 %7
  %9 = load i32, ptr %8, align 4
  %.val.i = load ptr, ptr %1, align 8
  %10 = getelementptr inbounds nuw i8, ptr %.val.i, i64 216
  %11 = load i32, ptr %10, align 8
  %.not = icmp eq i32 %9, %11
  br i1 %.not, label %common.ret, label %12

12:                                               ; preds = %2
  %13 = getelementptr i8, ptr %1, i64 28
  %.val = load i32, ptr %13, align 4
  %14 = icmp eq i32 %.val, 0
  br i1 %14, label %common.ret, label %15

15:                                               ; preds = %12
  %16 = getelementptr i8, ptr %1, i64 20
  %.val24 = load i32, ptr %16, align 4
  %17 = and i32 %.val24, 15
  switch i32 %17, label %20 [
    i32 5, label %common.ret
    i32 2, label %common.ret
  ]

common.ret:                                       ; preds = %15, %15, %12, %2
  %18 = getelementptr inbounds nuw i8, ptr %1, i64 64
  %19 = load i32, ptr %18, align 8
  br label %common.ret30

common.ret30:                                     ; preds = %20, %common.ret
  %common.ret30.op = phi i32 [ %19, %common.ret ], [ %46, %20 ]
  ret i32 %common.ret30.op

20:                                               ; preds = %15
  %.val26 = load i32, ptr %3, align 8
  %21 = getelementptr inbounds nuw i8, ptr %.val.i, i64 224
  %22 = add nsw i32 %.val26, 1
  tail call fastcc void @Vec_IntFillExtra(ptr noundef nonnull %21, i32 noundef %22)
  %23 = getelementptr i8, ptr %.val.i, i64 232
  %.val.i.i.i27 = load ptr, ptr %23, align 8
  %24 = sext i32 %.val26 to i64
  %25 = getelementptr inbounds i32, ptr %.val.i.i.i27, i64 %24
  store i32 %11, ptr %25, align 4
  %.val20 = load ptr, ptr %1, align 8
  %26 = getelementptr i8, ptr %1, i64 32
  %.val21 = load ptr, ptr %26, align 8
  %27 = getelementptr i8, ptr %.val20, i64 32
  %.val20.val = load ptr, ptr %27, align 8
  %.val21.val = load i32, ptr %.val21, align 4
  %28 = getelementptr i8, ptr %.val20.val, i64 8
  %.val20.val.val = load ptr, ptr %28, align 8
  %29 = sext i32 %.val21.val to i64
  %30 = getelementptr inbounds ptr, ptr %.val20.val.val, i64 %29
  %31 = load ptr, ptr %30, align 8
  %32 = tail call i32 @Abc_NtkClpOneGia_rec(ptr noundef %0, ptr noundef %31)
  %.val22 = load ptr, ptr %1, align 8
  %.val23 = load ptr, ptr %26, align 8
  %33 = getelementptr i8, ptr %.val22, i64 32
  %.val22.val = load ptr, ptr %33, align 8
  %34 = getelementptr i8, ptr %.val23, i64 4
  %.val23.val = load i32, ptr %34, align 4
  %35 = getelementptr i8, ptr %.val22.val, i64 8
  %.val22.val.val = load ptr, ptr %35, align 8
  %36 = sext i32 %.val23.val to i64
  %37 = getelementptr inbounds ptr, ptr %.val22.val.val, i64 %36
  %38 = load ptr, ptr %37, align 8
  %39 = tail call i32 @Abc_NtkClpOneGia_rec(ptr noundef %0, ptr noundef %38)
  %.val18 = load i32, ptr %16, align 4
  %40 = lshr i32 %.val18, 10
  %41 = and i32 %40, 1
  %42 = xor i32 %41, %32
  %43 = lshr i32 %.val18, 11
  %44 = and i32 %43, 1
  %45 = xor i32 %44, %39
  %46 = tail call i32 @Gia_ManHashAnd(ptr noundef %0, i32 noundef %42, i32 noundef %45) #28
  %47 = getelementptr inbounds nuw i8, ptr %1, i64 64
  store i32 %46, ptr %47, align 8
  br label %common.ret30
}